target datalayout = "e-m:e-p270:32:32-p271:32:32-p272:64:64-i64:64-i128:128-f80:128-n8:16:32:64-S128"
target triple = "x86_64-pc-linux-gnu"

%class.VMStorage = type { i8, i16, i32 }

$_Z12jdouble_castl = comdat any

$_Z11jfloat_casti = comdat any

$_ZNK9VMStorage8is_stackEv = comdat any

$_ZN9VMStorage10stack_typeEv = comdat any

@_ZL11min_jdouble = internal global double 0.000000e+00, align 8
@_ZL11max_jdouble = internal global double 0.000000e+00, align 8
@_ZL10min_jfloat = internal global float 0.000000e+00, align 4
@_ZL10max_jfloat = internal global float 0.000000e+00, align 4
@.str = private unnamed_addr constant [27 x i8] c"{type=%d, index=%d, %s=%d}\00", align 1
@.str.4 = private unnamed_addr constant [5 x i8] c"size\00", align 1
@.str.5 = private unnamed_addr constant [13 x i8] c"segment_mask\00", align 1
@llvm.global_ctors = appending global [1 x { i32, ptr, ptr }] [{ i32, ptr, ptr } { i32 65535, ptr @_GLOBAL__sub_I_vmstorage.cpp, ptr null }]

; Function Attrs: nounwind uwtable
define internal void @__cxx_global_var_init() #0 section ".text.startup" {
  %1 = call noundef double @_Z12jdouble_castl(i64 noundef 1)
  store double %1, ptr @_ZL11min_jdouble, align 8
  ret void
}

; Function Attrs: mustprogress nounwind uwtable
define linkonce_odr hidden noundef double @_Z12jdouble_castl(i64 noundef %0) #1 comdat {
  %2 = alloca i64, align 8
  store i64 %0, ptr %2, align 8
  %3 = load double, ptr %2, align 8
  ret double %3
}

; Function Attrs: nounwind uwtable
define internal void @__cxx_global_var_init.1() #0 section ".text.startup" {
  %1 = call noundef double @_Z12jdouble_castl(i64 noundef 9218868437227405311)
  store double %1, ptr @_ZL11max_jdouble, align 8
  ret void
}

; Function Attrs: nounwind uwtable
define internal void @__cxx_global_var_init.2() #0 section ".text.startup" {
  %1 = call noundef float @_Z11jfloat_casti(i32 noundef 1)
  store float %1, ptr @_ZL10min_jfloat, align 4
  ret void
}

; Function Attrs: mustprogress nounwind uwtable
define linkonce_odr hidden noundef float @_Z11jfloat_casti(i32 noundef %0) #1 comdat {
  %2 = alloca i32, align 4
  store i32 %0, ptr %2, align 4
  %3 = load float, ptr %2, align 4
  ret float %3
}

; Function Attrs: nounwind uwtable
define internal void @__cxx_global_var_init.3() #0 section ".text.startup" {
  %1 = call noundef float @_Z11jfloat_casti(i32 noundef 2139095039)
  store float %1, ptr @_ZL10max_jfloat, align 4
  ret void
}

; Function Attrs: mustprogress nounwind uwtable
define hidden void @_ZNK9VMStorage8print_onEP12outputStream(ptr noundef nonnull align 4 dereferenceable(8) %0, ptr noundef %1) #1 align 2 {
  %3 = alloca ptr, align 8
  %4 = alloca ptr, align 8
  store ptr %0, ptr %3, align 8
  store ptr %1, ptr %4, align 8
  %5 = load ptr, ptr %3, align 8
  %6 = load ptr, ptr %4, align 8
  %7 = getelementptr inbounds %class.VMStorage, ptr %5, i32 0, i32 0
  %8 = load i8, ptr %7, align 4
  %9 = sext i8 %8 to i32
  %10 = getelementptr inbounds %class.VMStorage, ptr %5, i32 0, i32 2
  %11 = load i32, ptr %10, align 4
  %12 = call noundef zeroext i1 @_ZNK9VMStorage8is_stackEv(ptr noundef nonnull align 4 dereferenceable(8) %5)
  %13 = select i1 %12, ptr @.str.4, ptr @.str.5
  %14 = getelementptr inbounds %class.VMStorage, ptr %5, i32 0, i32 1
  %15 = load i16, ptr %14, align 2
  %16 = zext i16 %15 to i32
  call void (ptr, ptr, ...) @_ZN12outputStream5printEPKcz(ptr noundef nonnull align 8 dereferenceable(56) %6, ptr noundef @.str, i32 noundef %9, i32 noundef %11, ptr noundef %13, i32 noundef %16)
  ret void
}

declare void @_ZN12outputStream5printEPKcz(ptr noundef nonnull align 8 dereferenceable(56), ptr noundef, ...) #2

; Function Attrs: mustprogress nounwind uwtable
define linkonce_odr hidden noundef zeroext i1 @_ZNK9VMStorage8is_stackEv(ptr noundef nonnull align 4 dereferenceable(8) %0) #1 comdat align 2 {
  %2 = alloca ptr, align 8
  store ptr %0, ptr %2, align 8
  %3 = load ptr, ptr %2, align 8
  %4 = getelementptr inbounds %class.VMStorage, ptr %3, i32 0, i32 0
  %5 = load i8, ptr %4, align 4
  %6 = call noundef signext i8 @_ZN9VMStorage10stack_typeEv()
  %7 = icmp eq i8 %5, %6
  ret i1 %7
}

; Function Attrs: mustprogress nounwind uwtable
define linkonce_odr hidden noundef signext i8 @_ZN9VMStorage10stack_typeEv() #1 comdat align 2 {
  ret i8 3
}

; Function Attrs: nounwind uwtable
define internal void @_GLOBAL__sub_I_vmstorage.cpp() #0 section ".text.startup" {
  call void @__cxx_global_var_init()
  call void @__cxx_global_var_init.1()
  call void @__cxx_global_var_init.2()
  call void @__cxx_global_var_init.3()
  ret void
}


!llvm.module.flags = !{!0, !1, !2, !3, !4, !5}

!0 = !{i32 7, !"Dwarf Version", i32 5}
!1 = !{i32 2, !"Debug Info Version", i32 3}
!2 = !{i32 1, !"wchar_size", i32 4}
!3 = !{i32 8, !"PIC Level", i32 2}
!4 = !{i32 7, !"uwtable", i32 2}
!5 = !{i32 7, !"frame-pointer", i32 2}
