; ModuleID = 'bench/openjdk/original/vmstorage.ll'
source_filename = "bench/openjdk/original/vmstorage.ll"
target datalayout = "e-m:e-p270:32:32-p271:32:32-p272:64:64-i64:64-i128:128-f80:128-n8:16:32:64-S128"
target triple = "x86_64-pc-linux-gnu"

@.str = private unnamed_addr constant [27 x i8] c"{type=%d, index=%d, %s=%d}\00", align 1
@.str.4 = private unnamed_addr constant [5 x i8] c"size\00", align 1
@.str.5 = private unnamed_addr constant [13 x i8] c"segment_mask\00", align 1
@llvm.global_ctors = appending global [0 x { i32, ptr, ptr }] zeroinitializer

; Function Attrs: mustprogress nounwind uwtable
define hidden void @_ZNK9VMStorage8print_onEP12outputStream(ptr nocapture noundef nonnull readonly align 4 dereferenceable(8) %0, ptr noundef nonnull %1) local_unnamed_addr #0 align 2 {
  %3 = load i8, ptr %0, align 4
  %4 = sext i8 %3 to i32
  %5 = getelementptr inbounds i8, ptr %0, i64 4
  %6 = load i32, ptr %5, align 4
  %7 = icmp eq i8 %3, 3
  %8 = select i1 %7, ptr @.str.4, ptr @.str.5
  %9 = getelementptr inbounds i8, ptr %0, i64 2
  %10 = load i16, ptr %9, align 2
  %11 = zext i16 %10 to i32
  tail call void (ptr, ptr, ...) @_ZN12outputStream5printEPKcz(ptr noundef nonnull align 8 dereferenceable(56) %1, ptr noundef nonnull @.str, i32 noundef %4, i32 noundef %6, ptr noundef nonnull %8, i32 noundef %11) #2
  ret void
}

declare void @_ZN12outputStream5printEPKcz(ptr noundef nonnull align 8 dereferenceable(56), ptr noundef, ...) local_unnamed_addr #1


!llvm.module.flags = !{!0, !1, !2, !3, !4, !5}

!0 = !{i32 7, !"Dwarf Version", i32 5}
!1 = !{i32 2, !"Debug Info Version", i32 3}
!2 = !{i32 1, !"wchar_size", i32 4}
!3 = !{i32 8, !"PIC Level", i32 2}
!4 = !{i32 7, !"uwtable", i32 2}
!5 = !{i32 7, !"frame-pointer", i32 2}
